; Function Attrs: nounwind uwtable
define hidden void @ChunkListDelete(ptr noundef captures(none) %0) local_unnamed_addr #3 {
  %.pr = load ptr, ptr %0, align 8, !tbaa !28
  %.not3 = icmp eq ptr %.pr, null
  br i1 %.not3, label %._crit_edge, label %.lr.ph

.lr.ph:                                           ; preds = %1, %ChunkDelete.exit
  %2 = phi ptr [ %9, %ChunkDelete.exit ], [ %.pr, %1 ]
  %3 = getelementptr inbounds nuw i8, ptr %2, i64 4
  %4 = load i32, ptr %3, align 4, !tbaa !3
  %.not.i.i = icmp eq i32 %4, 0
  br i1 %.not.i.i, label %ChunkDelete.exit, label %5

5:                                                ; preds = %.lr.ph
  %6 = getelementptr inbounds nuw i8, ptr %2, i64 8
  %7 = load ptr, ptr %6, align 8, !tbaa !13
  tail call void @WebPFree(ptr noundef %7) #13
  br label %ChunkDelete.exit

ChunkDelete.exit:                                 ; preds = %.lr.ph, %5
  %8 = getelementptr inbounds nuw i8, ptr %2, i64 24
  %9 = load ptr, ptr %8, align 8, !tbaa !14
  tail call void @llvm.memset.p0.i64(ptr noundef nonnull align 8 dereferenceable(32) %2, i8 0, i64 32, i1 false)
  tail call void @WebPSafeFree(ptr noundef nonnull %2) #13
  store ptr %9, ptr %0, align 8, !tbaa !28
  %.not = icmp eq ptr %9, null
  br i1 %.not, label %._crit_edge, label %.lr.ph, !llvm.loop !34

._crit_edge:                                      ; preds = %ChunkDelete.exit, %1
  ret void
}